target datalayout = "e-m:e-p270:32:32-p271:32:32-p272:64:64-i64:64-i128:128-f80:128-n8:16:32:64-S128"
target triple = "x86_64-pc-linux-gnu"

%struct._zval_struct = type { %union._zend_value, %union.anon.0, %union.anon.3 }
%union._zend_value = type { i64 }
%union.anon.0 = type { i32 }
%union.anon.3 = type { i32 }
%struct.zend_get_gc_buffer = type { ptr, ptr, ptr }

; Function Attrs: nounwind uwtable
define void @zend_get_gc_buffer_grow(ptr noundef %0) #0 {
  %2 = alloca ptr, align 8
  %3 = alloca i64, align 8
  %4 = alloca i64, align 8
  store ptr %0, ptr %2, align 8
  %5 = load ptr, ptr %2, align 8
  %6 = getelementptr inbounds %struct.zend_get_gc_buffer, ptr %5, i32 0, i32 1
  %7 = load ptr, ptr %6, align 8
  %8 = load ptr, ptr %2, align 8
  %9 = getelementptr inbounds %struct.zend_get_gc_buffer, ptr %8, i32 0, i32 2
  %10 = load ptr, ptr %9, align 8
  %11 = ptrtoint ptr %7 to i64
  %12 = ptrtoint ptr %10 to i64
  %13 = sub i64 %11, %12
  %14 = sdiv exact i64 %13, 16
  store i64 %14, ptr %3, align 8
  %15 = load i64, ptr %3, align 8
  %16 = icmp eq i64 %15, 0
  br i1 %16, label %17, label %18

17:                                               ; preds = %1
  br label %21

18:                                               ; preds = %1
  %19 = load i64, ptr %3, align 8
  %20 = mul i64 %19, 2
  br label %21

21:                                               ; preds = %18, %17
  %22 = phi i64 [ 64, %17 ], [ %20, %18 ]
  store i64 %22, ptr %4, align 8
  %23 = load ptr, ptr %2, align 8
  %24 = getelementptr inbounds %struct.zend_get_gc_buffer, ptr %23, i32 0, i32 2
  %25 = load ptr, ptr %24, align 8
  %26 = load i64, ptr %4, align 8
  %27 = mul i64 %26, 16
  %28 = call ptr @_erealloc(ptr noundef %25, i64 noundef %27) #9
  %29 = load ptr, ptr %2, align 8
  %30 = getelementptr inbounds %struct.zend_get_gc_buffer, ptr %29, i32 0, i32 2
  store ptr %28, ptr %30, align 8
  %31 = load ptr, ptr %2, align 8
  %32 = getelementptr inbounds %struct.zend_get_gc_buffer, ptr %31, i32 0, i32 2
  %33 = load ptr, ptr %32, align 8
  %34 = load i64, ptr %4, align 8
  %35 = getelementptr inbounds %struct._zval_struct, ptr %33, i64 %34
  %36 = load ptr, ptr %2, align 8
  %37 = getelementptr inbounds %struct.zend_get_gc_buffer, ptr %36, i32 0, i32 1
  store ptr %35, ptr %37, align 8
  %38 = load ptr, ptr %2, align 8
  %39 = getelementptr inbounds %struct.zend_get_gc_buffer, ptr %38, i32 0, i32 2
  %40 = load ptr, ptr %39, align 8
  %41 = load i64, ptr %3, align 8
  %42 = getelementptr inbounds %struct._zval_struct, ptr %40, i64 %41
  %43 = load ptr, ptr %2, align 8
  %44 = getelementptr inbounds %struct.zend_get_gc_buffer, ptr %43, i32 0, i32 0
  store ptr %42, ptr %44, align 8
  ret void
}