; Function Attrs: nounwind uwtable
define void @zend_get_gc_buffer_grow(ptr nocapture noundef %0) local_unnamed_addr #2 {
  %2 = getelementptr inbounds i8, ptr %0, i64 8
  %3 = load ptr, ptr %2, align 8
  %4 = getelementptr inbounds i8, ptr %0, i64 16
  %5 = load ptr, ptr %4, align 8
  %6 = ptrtoint ptr %3 to i64
  %7 = ptrtoint ptr %5 to i64
  %8 = sub i64 %6, %7
  %9 = icmp eq ptr %3, %5
  %10 = ashr exact i64 %8, 3
  %11 = select i1 %9, i64 64, i64 %10
  %12 = shl i64 %11, 4
  %13 = tail call ptr @_erealloc(ptr noundef %5, i64 noundef %12) #17
  store ptr %13, ptr %4, align 8
  %14 = getelementptr inbounds %struct._zval_struct, ptr %13, i64 %11
  store ptr %14, ptr %2, align 8
  %15 = getelementptr inbounds i8, ptr %13, i64 %8
  store ptr %15, ptr %0, align 8
  ret void
}